target datalayout = "e-m:e-p270:32:32-p271:32:32-p272:64:64-i64:64-i128:128-f80:128-n8:16:32:64-S128"
target triple = "x86_64-pc-linux-gnu"

%struct.hostrange_t = type { ptr, i64, i64, i32, i8 }

; Function Attrs: nounwind uwtable
define internal i32 @_zero_padded(i64 noundef %0, i32 noundef %1) #0 {
  %3 = alloca i64, align 8
  %4 = alloca i32, align 4
  %5 = alloca i32, align 4
  store i64 %0, ptr %3, align 8
  store i32 %1, ptr %4, align 4
  call void @llvm.lifetime.start.p0(i64 4, ptr %5) #13
  store i32 1, ptr %5, align 4
  br label %6

6:                                                ; preds = %10, %2
  %7 = load i64, ptr %3, align 8
  %8 = udiv i64 %7, 10
  store i64 %8, ptr %3, align 8
  %9 = icmp ne i64 %8, 0
  br i1 %9, label %10, label %13

10:                                               ; preds = %6
  %11 = load i32, ptr %5, align 4
  %12 = add nsw i32 %11, 1
  store i32 %12, ptr %5, align 4
  br label %6, !llvm.loop !61

13:                                               ; preds = %6
  %14 = load i32, ptr %4, align 4
  %15 = load i32, ptr %5, align 4
  %16 = icmp sgt i32 %14, %15
  br i1 %16, label %17, label %21

17:                                               ; preds = %13
  %18 = load i32, ptr %4, align 4
  %19 = load i32, ptr %5, align 4
  %20 = sub nsw i32 %18, %19
  br label %22

21:                                               ; preds = %13
  br label %22

22:                                               ; preds = %21, %17
  %23 = phi i32 [ %20, %17 ], [ 0, %21 ]
  call void @llvm.lifetime.end.p0(i64 4, ptr %5) #13
  ret i32 %23
}

; Function Attrs: nounwind uwtable
define internal i32 @_width_equiv(i64 noundef %0, ptr noundef %1, i64 noundef %2, ptr noundef %3) #0 {
  %5 = alloca i32, align 4
  %6 = alloca i64, align 8
  %7 = alloca ptr, align 8
  %8 = alloca i64, align 8
  %9 = alloca ptr, align 8
  %10 = alloca i32, align 4
  %11 = alloca i32, align 4
  %12 = alloca i32, align 4
  %13 = alloca i32, align 4
  %14 = alloca i32, align 4
  store i64 %0, ptr %6, align 8
  store ptr %1, ptr %7, align 8
  store i64 %2, ptr %8, align 8
  store ptr %3, ptr %9, align 8
  call void @llvm.lifetime.start.p0(i64 4, ptr %10) #13
  call void @llvm.lifetime.start.p0(i64 4, ptr %11) #13
  call void @llvm.lifetime.start.p0(i64 4, ptr %12) #13
  call void @llvm.lifetime.start.p0(i64 4, ptr %13) #13
  %15 = load ptr, ptr %7, align 8
  %16 = load i32, ptr %15, align 4
  %17 = load ptr, ptr %9, align 8
  %18 = load i32, ptr %17, align 4
  %19 = icmp eq i32 %16, %18
  br i1 %19, label %20, label %21

20:                                               ; preds = %4
  store i32 1, ptr %5, align 4
  store i32 1, ptr %14, align 4
  br label %60

21:                                               ; preds = %4
  %22 = load i64, ptr %6, align 8
  %23 = load ptr, ptr %7, align 8
  %24 = load i32, ptr %23, align 4
  %25 = call i32 @_zero_padded(i64 noundef %22, i32 noundef %24)
  store i32 %25, ptr %10, align 4
  %26 = load i64, ptr %6, align 8
  %27 = load ptr, ptr %9, align 8
  %28 = load i32, ptr %27, align 4
  %29 = call i32 @_zero_padded(i64 noundef %26, i32 noundef %28)
  store i32 %29, ptr %11, align 4
  %30 = load i64, ptr %8, align 8
  %31 = load ptr, ptr %9, align 8
  %32 = load i32, ptr %31, align 4
  %33 = call i32 @_zero_padded(i64 noundef %30, i32 noundef %32)
  store i32 %33, ptr %12, align 4
  %34 = load i64, ptr %8, align 8
  %35 = load ptr, ptr %7, align 8
  %36 = load i32, ptr %35, align 4
  %37 = call i32 @_zero_padded(i64 noundef %34, i32 noundef %36)
  store i32 %37, ptr %13, align 4
  %38 = load i32, ptr %10, align 4
  %39 = load i32, ptr %11, align 4
  %40 = icmp ne i32 %38, %39
  br i1 %40, label %41, label %46

41:                                               ; preds = %21
  %42 = load i32, ptr %12, align 4
  %43 = load i32, ptr %13, align 4
  %44 = icmp ne i32 %42, %43
  br i1 %44, label %45, label %46

45:                                               ; preds = %41
  store i32 0, ptr %5, align 4
  store i32 1, ptr %14, align 4
  br label %60

46:                                               ; preds = %41, %21
  %47 = load i32, ptr %10, align 4
  %48 = load i32, ptr %11, align 4
  %49 = icmp ne i32 %47, %48
  br i1 %49, label %50, label %54

50:                                               ; preds = %46
  %51 = load ptr, ptr %7, align 8
  %52 = load i32, ptr %51, align 4
  %53 = load ptr, ptr %9, align 8
  store i32 %52, ptr %53, align 4
  br label %58

54:                                               ; preds = %46
  %55 = load ptr, ptr %9, align 8
  %56 = load i32, ptr %55, align 4
  %57 = load ptr, ptr %7, align 8
  store i32 %56, ptr %57, align 4
  br label %58

58:                                               ; preds = %54, %50
  br label %59

59:                                               ; preds = %58
  store i32 1, ptr %5, align 4
  store i32 1, ptr %14, align 4
  br label %60

60:                                               ; preds = %59, %45, %20
  call void @llvm.lifetime.end.p0(i64 4, ptr %13) #13
  call void @llvm.lifetime.end.p0(i64 4, ptr %12) #13
  call void @llvm.lifetime.end.p0(i64 4, ptr %11) #13
  call void @llvm.lifetime.end.p0(i64 4, ptr %10) #13
  %61 = load i32, ptr %5, align 4
  ret i32 %61
}

; Function Attrs: nounwind uwtable
define internal i32 @hostrange_width_combine(ptr noundef %0, ptr noundef %1) #0 {
  %3 = alloca ptr, align 8
  %4 = alloca ptr, align 8
  store ptr %0, ptr %3, align 8
  store ptr %1, ptr %4, align 8
  %5 = load ptr, ptr %3, align 8
  %6 = getelementptr inbounds nuw %struct.hostrange_t, ptr %5, i32 0, i32 1
  %7 = load i64, ptr %6, align 8
  %8 = load ptr, ptr %3, align 8
  %9 = getelementptr inbounds nuw %struct.hostrange_t, ptr %8, i32 0, i32 3
  %10 = load ptr, ptr %4, align 8
  %11 = getelementptr inbounds nuw %struct.hostrange_t, ptr %10, i32 0, i32 1
  %12 = load i64, ptr %11, align 8
  %13 = load ptr, ptr %4, align 8
  %14 = getelementptr inbounds nuw %struct.hostrange_t, ptr %13, i32 0, i32 3
  %15 = call i32 @_width_equiv(i64 noundef %7, ptr noundef %9, i64 noundef %12, ptr noundef %14)
  ret i32 %15
}

; Function Attrs: nounwind uwtable
define internal i32 @hostrange_prefix_cmp(ptr noundef %0, ptr noundef %1) #0 {
  %3 = alloca i32, align 4
  %4 = alloca ptr, align 8
  %5 = alloca ptr, align 8
  %6 = alloca i32, align 4
  %7 = alloca i32, align 4
  store ptr %0, ptr %4, align 8
  store ptr %1, ptr %5, align 8
  call void @llvm.lifetime.start.p0(i64 4, ptr %6) #13
  %8 = load ptr, ptr %4, align 8
  %9 = icmp eq ptr %8, null
  br i1 %9, label %10, label %11

10:                                               ; preds = %2
  store i32 1, ptr %3, align 4
  store i32 1, ptr %7, align 4
  br label %41

11:                                               ; preds = %2
  %12 = load ptr, ptr %5, align 8
  %13 = icmp eq ptr %12, null
  br i1 %13, label %14, label %15

14:                                               ; preds = %11
  store i32 -1, ptr %3, align 4
  store i32 1, ptr %7, align 4
  br label %41

15:                                               ; preds = %11
  %16 = load ptr, ptr %4, align 8
  %17 = getelementptr inbounds nuw %struct.hostrange_t, ptr %16, i32 0, i32 0
  %18 = load ptr, ptr %17, align 8
  %19 = load ptr, ptr %5, align 8
  %20 = getelementptr inbounds nuw %struct.hostrange_t, ptr %19, i32 0, i32 0
  %21 = load ptr, ptr %20, align 8
  %22 = call i32 @strnatcmp(ptr noundef %18, ptr noundef %21)
  store i32 %22, ptr %6, align 4
  %23 = load i32, ptr %6, align 4
  %24 = icmp eq i32 %23, 0
  br i1 %24, label %25, label %37

25:                                               ; preds = %15
  %26 = load ptr, ptr %5, align 8
  %27 = getelementptr inbounds nuw %struct.hostrange_t, ptr %26, i32 0, i32 4
  %28 = load i8, ptr %27, align 4, !range !12, !noundef !13
  %29 = trunc i8 %28 to i1
  %30 = zext i1 %29 to i32
  %31 = load ptr, ptr %4, align 8
  %32 = getelementptr inbounds nuw %struct.hostrange_t, ptr %31, i32 0, i32 4
  %33 = load i8, ptr %32, align 4, !range !12, !noundef !13
  %34 = trunc i8 %33 to i1
  %35 = zext i1 %34 to i32
  %36 = sub nsw i32 %30, %35
  br label %39

37:                                               ; preds = %15
  %38 = load i32, ptr %6, align 4
  br label %39

39:                                               ; preds = %37, %25
  %40 = phi i32 [ %36, %25 ], [ %38, %37 ]
  store i32 %40, ptr %3, align 4
  store i32 1, ptr %7, align 4
  br label %41

41:                                               ; preds = %39, %14, %10
  call void @llvm.lifetime.end.p0(i64 4, ptr %6) #13
  %42 = load i32, ptr %3, align 4
  ret i32 %42
}

; Function Attrs: nounwind uwtable
define internal i32 @hostrange_cmp(ptr noundef %0, ptr noundef %1) #0 {
  %3 = alloca ptr, align 8
  %4 = alloca ptr, align 8
  %5 = alloca i32, align 4
  store ptr %0, ptr %3, align 8
  store ptr %1, ptr %4, align 8
  call void @llvm.lifetime.start.p0(i64 4, ptr %5) #13
  %6 = load ptr, ptr %3, align 8
  %7 = load ptr, ptr %4, align 8
  %8 = call i32 @hostrange_prefix_cmp(ptr noundef %6, ptr noundef %7)
  store i32 %8, ptr %5, align 4
  %9 = icmp eq i32 %8, 0
  br i1 %9, label %10, label %35

10:                                               ; preds = %2
  %11 = load ptr, ptr %3, align 8
  %12 = load ptr, ptr %4, align 8
  %13 = call i32 @hostrange_width_combine(ptr noundef %11, ptr noundef %12)
  %14 = icmp ne i32 %13, 0
  br i1 %14, label %15, label %23

15:                                               ; preds = %10
  %16 = load ptr, ptr %3, align 8
  %17 = getelementptr inbounds nuw %struct.hostrange_t, ptr %16, i32 0, i32 1
  %18 = load i64, ptr %17, align 8
  %19 = load ptr, ptr %4, align 8
  %20 = getelementptr inbounds nuw %struct.hostrange_t, ptr %19, i32 0, i32 1
  %21 = load i64, ptr %20, align 8
  %22 = sub i64 %18, %21
  br label %32

23:                                               ; preds = %10
  %24 = load ptr, ptr %3, align 8
  %25 = getelementptr inbounds nuw %struct.hostrange_t, ptr %24, i32 0, i32 3
  %26 = load i32, ptr %25, align 8
  %27 = load ptr, ptr %4, align 8
  %28 = getelementptr inbounds nuw %struct.hostrange_t, ptr %27, i32 0, i32 3
  %29 = load i32, ptr %28, align 8
  %30 = sub nsw i32 %26, %29
  %31 = sext i32 %30 to i64
  br label %32

32:                                               ; preds = %23, %15
  %33 = phi i64 [ %22, %15 ], [ %31, %23 ]
  %34 = trunc i64 %33 to i32
  store i32 %34, ptr %5, align 4
  br label %35

35:                                               ; preds = %32, %2
  %36 = load i32, ptr %5, align 4
  call void @llvm.lifetime.end.p0(i64 4, ptr %5) #13
  ret i32 %36
}