; Function Attrs: nounwind uwtable
define internal fastcc i32 @hostrange_cmp(ptr noundef captures(address_is_null) %0, ptr noundef captures(address_is_null) %1) unnamed_addr #0 {
  %3 = icmp eq ptr %0, null
  br i1 %3, label %hostrange_prefix_cmp.exit.thread, label %4

4:                                                ; preds = %2
  %5 = icmp eq ptr %1, null
  br i1 %5, label %hostrange_prefix_cmp.exit.thread, label %6

6:                                                ; preds = %4
  %7 = load ptr, ptr %0, align 8
  %8 = load ptr, ptr %1, align 8
  %9 = tail call i32 @strnatcmp(ptr noundef %7, ptr noundef %8) #22
  %10 = icmp eq i32 %9, 0
  br i1 %10, label %hostrange_prefix_cmp.exit, label %hostrange_prefix_cmp.exit.thread

hostrange_prefix_cmp.exit:                        ; preds = %6
  %11 = getelementptr inbounds nuw i8, ptr %1, i64 28
  %12 = load i8, ptr %11, align 4, !range !14, !noundef !15
  %13 = zext nneg i8 %12 to i32
  %14 = getelementptr inbounds nuw i8, ptr %0, i64 28
  %15 = load i8, ptr %14, align 4, !range !14, !noundef !15
  %16 = zext nneg i8 %15 to i32
  %17 = sub nsw i32 %13, %16
  %18 = icmp eq i32 %17, 0
  br i1 %18, label %19, label %hostrange_prefix_cmp.exit.thread

19:                                               ; preds = %hostrange_prefix_cmp.exit
  %20 = getelementptr inbounds nuw i8, ptr %0, i64 8
  %21 = load i64, ptr %20, align 8
  %22 = getelementptr inbounds nuw i8, ptr %0, i64 24
  %23 = getelementptr inbounds nuw i8, ptr %1, i64 8
  %24 = load i64, ptr %23, align 8
  %25 = getelementptr inbounds nuw i8, ptr %1, i64 24
  %26 = load i32, ptr %22, align 4
  %27 = load i32, ptr %25, align 4
  %28 = icmp eq i32 %26, %27
  br i1 %28, label %59, label %29

29:                                               ; preds = %19
  %.not8.i.i.i = icmp ult i64 %21, 10
  br i1 %.not8.i.i.i, label %_zero_padded.exit.thread.i.i, label %.lr.ph.i.i.i

_zero_padded.exit.thread.i.i:                     ; preds = %29
  %30 = tail call i32 @llvm.smax.i32(i32 %26, i32 1)
  %31 = add nsw i32 %30, -1
  br label %_zero_padded.exit28.i.i

.lr.ph.i.i.i:                                     ; preds = %29, %.lr.ph.i.i.i
  %.010.i.i.i = phi i32 [ %33, %.lr.ph.i.i.i ], [ 1, %29 ]
  %.069.i.i.i = phi i64 [ %32, %.lr.ph.i.i.i ], [ %21, %29 ]
  %32 = udiv i64 %.069.i.i.i, 10
  %33 = add nuw nsw i32 %.010.i.i.i, 1
  %.not.i.i.i = icmp ult i64 %.069.i.i.i, 100
  br i1 %.not.i.i.i, label %.lr.ph.i23.i.i, label %.lr.ph.i.i.i, !llvm.loop !38

.lr.ph.i23.i.i:                                   ; preds = %.lr.ph.i.i.i, %.lr.ph.i23.i.i
  %.010.i24.i.i = phi i32 [ %35, %.lr.ph.i23.i.i ], [ 1, %.lr.ph.i.i.i ]
  %.069.i25.i.i = phi i64 [ %34, %.lr.ph.i23.i.i ], [ %21, %.lr.ph.i.i.i ]
  %34 = udiv i64 %.069.i25.i.i, 10
  %35 = add nuw nsw i32 %.010.i24.i.i, 1
  %.not.i26.i.i = icmp ult i64 %.069.i25.i.i, 100
  br i1 %.not.i26.i.i, label %_zero_padded.exit28.loopexit.i.i, label %.lr.ph.i23.i.i, !llvm.loop !38

_zero_padded.exit28.loopexit.i.i:                 ; preds = %.lr.ph.i23.i.i
  %36 = sub nsw i32 %26, %33
  %37 = icmp sgt i32 %26, %33
  %38 = select i1 %37, i32 %36, i32 0
  br label %_zero_padded.exit28.i.i

_zero_padded.exit28.i.i:                          ; preds = %_zero_padded.exit28.loopexit.i.i, %_zero_padded.exit.thread.i.i
  %39 = phi i32 [ %31, %_zero_padded.exit.thread.i.i ], [ %38, %_zero_padded.exit28.loopexit.i.i ]
  %.0.lcssa.i27.i.i = phi i32 [ 1, %_zero_padded.exit.thread.i.i ], [ %35, %_zero_padded.exit28.loopexit.i.i ]
  %40 = icmp sgt i32 %27, %.0.lcssa.i27.i.i
  %41 = sub nsw i32 %27, %.0.lcssa.i27.i.i
  %42 = select i1 %40, i32 %41, i32 0
  %.not8.i29.i.i = icmp ult i64 %24, 10
  br i1 %.not8.i29.i.i, label %_zero_padded.exit35.thread.i.i, label %.lr.ph.i30.i.i

_zero_padded.exit35.thread.i.i:                   ; preds = %_zero_padded.exit28.i.i
  %43 = tail call i32 @llvm.smax.i32(i32 %27, i32 1)
  %44 = add nsw i32 %43, -1
  br label %_zero_padded.exit42.i.i

.lr.ph.i30.i.i:                                   ; preds = %_zero_padded.exit28.i.i, %.lr.ph.i30.i.i
  %.010.i31.i.i = phi i32 [ %46, %.lr.ph.i30.i.i ], [ 1, %_zero_padded.exit28.i.i ]
  %.069.i32.i.i = phi i64 [ %45, %.lr.ph.i30.i.i ], [ %24, %_zero_padded.exit28.i.i ]
  %45 = udiv i64 %.069.i32.i.i, 10
  %46 = add nuw nsw i32 %.010.i31.i.i, 1
  %.not.i33.i.i = icmp ult i64 %.069.i32.i.i, 100
  br i1 %.not.i33.i.i, label %.lr.ph.i37.i.i, label %.lr.ph.i30.i.i, !llvm.loop !38

.lr.ph.i37.i.i:                                   ; preds = %.lr.ph.i30.i.i, %.lr.ph.i37.i.i
  %.010.i38.i.i = phi i32 [ %48, %.lr.ph.i37.i.i ], [ 1, %.lr.ph.i30.i.i ]
  %.069.i39.i.i = phi i64 [ %47, %.lr.ph.i37.i.i ], [ %24, %.lr.ph.i30.i.i ]
  %47 = udiv i64 %.069.i39.i.i, 10
  %48 = add nuw nsw i32 %.010.i38.i.i, 1
  %.not.i40.i.i = icmp ult i64 %.069.i39.i.i, 100
  br i1 %.not.i40.i.i, label %_zero_padded.exit42.loopexit.i.i, label %.lr.ph.i37.i.i, !llvm.loop !38

_zero_padded.exit42.loopexit.i.i:                 ; preds = %.lr.ph.i37.i.i
  %49 = sub nsw i32 %27, %46
  %50 = icmp sgt i32 %27, %46
  %51 = select i1 %50, i32 %49, i32 0
  br label %_zero_padded.exit42.i.i

_zero_padded.exit42.i.i:                          ; preds = %_zero_padded.exit42.loopexit.i.i, %_zero_padded.exit35.thread.i.i
  %52 = phi i32 [ %44, %_zero_padded.exit35.thread.i.i ], [ %51, %_zero_padded.exit42.loopexit.i.i ]
  %.0.lcssa.i41.i.i = phi i32 [ 1, %_zero_padded.exit35.thread.i.i ], [ %48, %_zero_padded.exit42.loopexit.i.i ]
  %53 = icmp sgt i32 %26, %.0.lcssa.i41.i.i
  %54 = sub nsw i32 %26, %.0.lcssa.i41.i.i
  %55 = select i1 %53, i32 %54, i32 0
  %.not.i.i = icmp eq i32 %39, %42
  %.not21.i.i = icmp eq i32 %52, %55
  %or.cond.i.i = select i1 %.not.i.i, i1 true, i1 %.not21.i.i
  br i1 %or.cond.i.i, label %56, label %hostrange_width_combine.exit

56:                                               ; preds = %_zero_padded.exit42.i.i
  br i1 %.not.i.i, label %58, label %57

57:                                               ; preds = %56
  store i32 %26, ptr %25, align 4
  %.pre = load i64, ptr %20, align 8
  br label %59

58:                                               ; preds = %56
  store i32 %27, ptr %22, align 4
  %.pre18 = load i64, ptr %23, align 8
  br label %59

59:                                               ; preds = %19, %57, %58
  %60 = phi i64 [ %24, %19 ], [ %24, %57 ], [ %.pre18, %58 ]
  %61 = phi i64 [ %21, %19 ], [ %.pre, %57 ], [ %21, %58 ]
  %62 = sub i64 %61, %60
  %63 = trunc i64 %62 to i32
  br label %hostrange_prefix_cmp.exit.thread

hostrange_width_combine.exit:                     ; preds = %_zero_padded.exit42.i.i
  %64 = sub nsw i32 %26, %27
  br label %hostrange_prefix_cmp.exit.thread

hostrange_prefix_cmp.exit.thread:                 ; preds = %6, %4, %2, %59, %hostrange_width_combine.exit, %hostrange_prefix_cmp.exit
  %.0 = phi i32 [ %17, %hostrange_prefix_cmp.exit ], [ %63, %59 ], [ %64, %hostrange_width_combine.exit ], [ %9, %6 ], [ -1, %4 ], [ 1, %2 ]
  ret i32 %.0
}